; Function Attrs: mustprogress uwtable
define dso_local void @_ZN8V3Global4bootEv(ptr noundef nonnull align 8 captures(none) dereferenceable(1896) %0) local_unnamed_addr #3 align 2 personality ptr @__gxx_personality_v0 {
  %2 = load ptr, ptr %0, align 8, !tbaa !4
  %.not = icmp eq ptr %2, null
  br i1 %.not, label %7, label %3, !prof !68

3:                                                ; preds = %1
  %4 = tail call noundef nonnull align 8 dereferenceable(112) ptr @_ZN7V3Error19v3errorPrepFileLineB5cxx11E11V3ErrorCodePKci(i8 4, ptr noundef nonnull @.str, i32 noundef 37)
  %5 = tail call noundef nonnull align 8 dereferenceable(112) ptr @_ZN7V3Error10v3errorStrB5cxx11Ev()
  %6 = tail call noundef nonnull align 8 dereferenceable(8) ptr @_ZStlsISt11char_traitsIcEERSt13basic_ostreamIcT_ES5_PKc(ptr noundef nonnull align 8 dereferenceable(8) %5, ptr noundef nonnull @.str.1)
  tail call void @_Z15v3errorEndFatalRNSt7__cxx1119basic_ostringstreamIcSt11char_traitsIcESaIcEEE(ptr noundef nonnull align 8 dereferenceable(112) %6) #23
  unreachable

7:                                                ; preds = %1
  %8 = tail call noalias noundef nonnull dereferenceable(248) ptr @_Znwm(i64 noundef 248) #24
  invoke void @_ZN10AstNetlistC1Ev(ptr noundef nonnull align 8 dereferenceable(248) %8)
          to label %9 unwind label %10

9:                                                ; preds = %7
  store ptr %8, ptr %0, align 8, !tbaa !4
  ret void

10:                                               ; preds = %7
  %11 = landingpad { ptr, i32 }
          cleanup
  tail call void @_ZdlPvm(ptr noundef nonnull %8, i64 noundef 248) #25
  resume { ptr, i32 } %11
}